 0000                   cpu LMM
                        .module main.c
                        .area text(rom, con, rel)
 0000                   .dbfile ./main.c
 0000                   .dbfile D:\Studia\PSOC\TEMP\TEMP\main.c
 0000                   .dbfunc e main _main fV
 0000           _main::
 0000                   .dbline -1
 0000 10                push X
 0001 4F                mov X,SP
 0002 3802              add SP,2
 0004                   .dbline 7
 0004           ; #include <m8c.h>        /* part specific constants and macros */
 0004           ; #include "PSoCAPI.h"    /* PSoC API definitions for all User Modules */
 0004           ; #include "LEDControl.h"
 0004           ; #include "TempControl.h"
 0004           ; 
 0004           ; void main(void)
 0004           ; {
 0004                   .dbline 10
 0004           ; 
 0004           ; 
 0004           ;       M8C_EnableGInt; 
 0004 7101                      or  F, 01h
 0006           
 0006                   .dbline 11
 0006           ;       LEDControl_INIT();
 0006 7C0000            xcall _LEDControl_INIT
 0009 806F              xjmp L3
 000B           L2:
 000B                   .dbline 14
 000B           ;       
 000B           ;       while(1)
 000B           ;       {               
 000B                   .dbline 15
 000B           ;               switch(TempControl_GetValue())
 000B 7C0000            xcall _TempControl_GetValue
 000E 62D000            mov REG[0xd0],>__r0
 0011 5100              mov A,[__r1]
 0013 5401              mov [X+1],A
 0015 5100              mov A,[__r0]
 0017 5400              mov [X+0],A
 0019 3D0000            cmp [X+0],0
 001C B006              jnz X1
 001E 3D0100            cmp [X+1],0
 0021 A021              jz L8
 0023           X1:
 0023 3D0000            cmp [X+0],0
 0026 B006              jnz X2
 0028 3D0101            cmp [X+1],1
 002B A023              jz L9
 002D           X2:
 002D 3D0000            cmp [X+0],0
 0030 B006              jnz X3
 0032 3D0102            cmp [X+1],2
 0035 A027              jz L10
 0037           X3:
 0037 3D0000            cmp [X+0],0
 003A B006              jnz X4
 003C 3D0103            cmp [X+1],3
 003F A02D              jz L11
 0041           X4:
 0041 8037              xjmp L6
 0043           L8:
 0043                   .dbline 18
 0043           ;               {
 0043           ;                       case 0:
 0043           ;                               LEDControl_ChangeState(FALSE,FALSE,FALSE); 
 0043 5000              mov A,0
 0045 08                push A
 0046 08                push A
 0047 08                push A
 0048 7C0000            xcall _LEDControl_ChangeState
 004B 38FD              add SP,-3
 004D                   .dbline 19
 004D           ;                               break;
 004D 802B              xjmp L6
 004F           L9:
 004F                   .dbline 21
 004F           ;                       case 1:
 004F           ;                               LEDControl_ChangeState(FALSE,FALSE,TRUE); 
 004F 5001              mov A,1
 0051 08                push A
 0052 5000              mov A,0
 0054 08                push A
 0055 08                push A
 0056 7C0000            xcall _LEDControl_ChangeState
 0059 38FD              add SP,-3
 005B                   .dbline 22
 005B           ;                               break;
 005B 801D              xjmp L6
 005D           L10:
 005D                   .dbline 24
 005D           ;                       case 2:
 005D           ;                               LEDControl_ChangeState(FALSE,TRUE,FALSE);
 005D 5000              mov A,0
 005F 08                push A
 0060 5001              mov A,1
 0062 08                push A
 0063 5000              mov A,0
 0065 08                push A
 0066 7C0000            xcall _LEDControl_ChangeState
 0069 38FD              add SP,-3
 006B                   .dbline 25
 006B           ;                               break;
 006B 800D              xjmp L6
 006D           L11:
 006D                   .dbline 27
 006D           ;                       case 3:
 006D           ;                               LEDControl_ChangeState(TRUE,FALSE,FALSE);
 006D 5000              mov A,0
 006F 08                push A
 0070 08                push A
 0071 5001              mov A,1
 0073 08                push A
 0074 7C0000            xcall _LEDControl_ChangeState
 0077 38FD              add SP,-3
 0079                   .dbline 28
 0079           ;                               break;
 0079                   .dbline 30
 0079           ;                       default: 
 0079           ;                               break;
 0079           L6:
 0079                   .dbline 32
 0079           ;               }       
 0079           ;       }
 0079           L3:
 0079                   .dbline 13
 0079 8F91              xjmp L2
 007B           X0:
 007B                   .dbline -2
 007B           L1:
 007B 38FE              add SP,-2
 007D 20                pop X
 007E                   .dbline 0 ; func end
 007E 8FFF              jmp .
 0080                   .dbend
